target datalayout = "e-m:e-p270:32:32-p271:32:32-p272:64:64-i64:64-i128:128-f80:128-n8:16:32:64-S128"
target triple = "x86_64-pc-linux-gnu"

%struct.psa_key_attributes_s = type { %struct.psa_core_key_attributes_t, ptr, i64 }
%struct.psa_core_key_attributes_t = type { i16, i16, i32, i32, %struct.psa_key_policy_s, i16 }
%struct.psa_key_policy_s = type { i32, i32, i32 }
%struct.mbedtls_cipher_context_t = type { ptr, i32, i32, ptr, ptr, [16 x i8], i64, [16 x i8], i64, ptr, ptr }
%struct.psa_aead_operation_s = type { i32, i32, i16, i64, i64, i8, %union.psa_driver_aead_context_t }
%union.psa_driver_aead_context_t = type { %struct.mbedtls_psa_aead_operation_t }
%struct.mbedtls_psa_aead_operation_t = type { i32, i16, i8, i8, %union.anon.1 }
%union.anon.1 = type { %struct.mbedtls_gcm_context }
%struct.mbedtls_gcm_context = type { %struct.mbedtls_cipher_context_t, [16 x i64], [16 x i64], i64, i64, [16 x i8], [16 x i8], [16 x i8], i32 }

; Function Attrs: nounwind uwtable
define hidden i32 @psa_driver_wrapper_aead_decrypt_setup(ptr noundef %0, ptr noundef %1, ptr noundef %2, i64 noundef %3, i32 noundef %4) #0 {
  %6 = alloca i32, align 4
  %7 = alloca ptr, align 8
  %8 = alloca ptr, align 8
  %9 = alloca ptr, align 8
  %10 = alloca i64, align 8
  %11 = alloca i32, align 4
  %12 = alloca i32, align 4
  %13 = alloca i32, align 4
  store ptr %0, ptr %7, align 8
  store ptr %1, ptr %8, align 8
  store ptr %2, ptr %9, align 8
  store i64 %3, ptr %10, align 8
  store i32 %4, ptr %11, align 4
  store i32 -151, ptr %12, align 4
  %14 = load ptr, ptr %8, align 8
  %15 = getelementptr inbounds %struct.psa_key_attributes_s, ptr %14, i32 0, i32 0
  %16 = getelementptr inbounds %struct.psa_core_key_attributes_t, ptr %15, i32 0, i32 2
  %17 = load i32, ptr %16, align 4
  %18 = lshr i32 %17, 8
  store i32 %18, ptr %13, align 4
  %19 = load i32, ptr %13, align 4
  switch i32 %19, label %31 [
    i32 0, label %20
  ]

20:                                               ; preds = %5
  %21 = load ptr, ptr %7, align 8
  %22 = getelementptr inbounds %struct.psa_aead_operation_s, ptr %21, i32 0, i32 0
  store i32 1, ptr %22, align 8
  %23 = load ptr, ptr %7, align 8
  %24 = getelementptr inbounds %struct.psa_aead_operation_s, ptr %23, i32 0, i32 6
  %25 = load ptr, ptr %8, align 8
  %26 = load ptr, ptr %9, align 8
  %27 = load i64, ptr %10, align 8
  %28 = load i32, ptr %11, align 4
  %29 = call i32 @mbedtls_psa_aead_decrypt_setup(ptr noundef %24, ptr noundef %25, ptr noundef %26, i64 noundef %27, i32 noundef %28)
  store i32 %29, ptr %12, align 4
  %30 = load i32, ptr %12, align 4
  store i32 %30, ptr %6, align 4
  br label %32

31:                                               ; preds = %5
  store i32 -135, ptr %6, align 4
  br label %32

32:                                               ; preds = %31, %20
  %33 = load i32, ptr %6, align 4
  ret i32 %33
}